target datalayout = "e-m:e-p270:32:32-p271:32:32-p272:64:64-i64:64-i128:128-f80:128-n8:16:32:64-S128"
target triple = "x86_64-pc-linux-gnu"

; Function Attrs: nounwind uwtable
define hidden i32 @Curl_http_decode_status(ptr noundef %0, ptr noundef %1, i64 noundef %2) #0 {
  %4 = alloca i32, align 4
  %5 = alloca ptr, align 8
  %6 = alloca ptr, align 8
  %7 = alloca i64, align 8
  %8 = alloca i32, align 4
  %9 = alloca i32, align 4
  %10 = alloca i32, align 4
  %11 = alloca i8, align 1
  %12 = alloca i32, align 4
  store ptr %0, ptr %5, align 8, !tbaa !117
  store ptr %1, ptr %6, align 8, !tbaa !82
  store i64 %2, ptr %7, align 8, !tbaa !119
  call void @llvm.lifetime.start.p0(i64 4, ptr %8) #7
  store i32 43, ptr %8, align 4, !tbaa !78
  call void @llvm.lifetime.start.p0(i64 4, ptr %9) #7
  store i32 0, ptr %9, align 4, !tbaa !78
  call void @llvm.lifetime.start.p0(i64 4, ptr %10) #7
  %13 = load i64, ptr %7, align 8, !tbaa !119
  %14 = icmp ne i64 %13, 3
  br i1 %14, label %15, label %16

15:                                               ; preds = %3
  br label %49

16:                                               ; preds = %3
  store i32 0, ptr %10, align 4, !tbaa !78
  br label %17

17:                                               ; preds = %45, %16
  %18 = load i32, ptr %10, align 4, !tbaa !78
  %19 = icmp slt i32 %18, 3
  br i1 %19, label %20, label %48

20:                                               ; preds = %17
  call void @llvm.lifetime.start.p0(i64 1, ptr %11) #7
  %21 = load ptr, ptr %6, align 8, !tbaa !82
  %22 = load i32, ptr %10, align 4, !tbaa !78
  %23 = sext i32 %22 to i64
  %24 = getelementptr inbounds i8, ptr %21, i64 %23
  %25 = load i8, ptr %24, align 1, !tbaa !100
  store i8 %25, ptr %11, align 1, !tbaa !100
  %26 = load i8, ptr %11, align 1, !tbaa !100
  %27 = sext i8 %26 to i32
  %28 = icmp slt i32 %27, 48
  br i1 %28, label %33, label %29

29:                                               ; preds = %20
  %30 = load i8, ptr %11, align 1, !tbaa !100
  %31 = sext i8 %30 to i32
  %32 = icmp sgt i32 %31, 57
  br i1 %32, label %33, label %34

33:                                               ; preds = %29, %20
  store i32 2, ptr %12, align 4
  br label %42

34:                                               ; preds = %29
  %35 = load i32, ptr %9, align 4, !tbaa !78
  %36 = mul nsw i32 %35, 10
  store i32 %36, ptr %9, align 4, !tbaa !78
  %37 = load i8, ptr %11, align 1, !tbaa !100
  %38 = sext i8 %37 to i32
  %39 = sub nsw i32 %38, 48
  %40 = load i32, ptr %9, align 4, !tbaa !78
  %41 = add nsw i32 %40, %39
  store i32 %41, ptr %9, align 4, !tbaa !78
  store i32 0, ptr %12, align 4
  br label %42

42:                                               ; preds = %33, %34
  call void @llvm.lifetime.end.p0(i64 1, ptr %11) #7
  %43 = load i32, ptr %12, align 4
  switch i32 %43, label %59 [
    i32 0, label %44
    i32 2, label %49
  ]

44:                                               ; preds = %42
  br label %45

45:                                               ; preds = %44
  %46 = load i32, ptr %10, align 4, !tbaa !78
  %47 = add nsw i32 %46, 1
  store i32 %47, ptr %10, align 4, !tbaa !78
  br label %17, !llvm.loop !233

48:                                               ; preds = %17
  store i32 0, ptr %8, align 4, !tbaa !78
  br label %49

49:                                               ; preds = %48, %42, %15
  %50 = load i32, ptr %8, align 4, !tbaa !78
  %51 = icmp ne i32 %50, 0
  br i1 %51, label %52, label %53

52:                                               ; preds = %49
  br label %55

53:                                               ; preds = %49
  %54 = load i32, ptr %9, align 4, !tbaa !78
  br label %55

55:                                               ; preds = %53, %52
  %56 = phi i32 [ -1, %52 ], [ %54, %53 ]
  %57 = load ptr, ptr %5, align 8, !tbaa !117
  store i32 %56, ptr %57, align 4, !tbaa !78
  %58 = load i32, ptr %8, align 4, !tbaa !78
  store i32 %58, ptr %4, align 4
  store i32 1, ptr %12, align 4
  br label %59

59:                                               ; preds = %55, %42
  call void @llvm.lifetime.end.p0(i64 4, ptr %10) #7
  call void @llvm.lifetime.end.p0(i64 4, ptr %9) #7
  call void @llvm.lifetime.end.p0(i64 4, ptr %8) #7
  %60 = load i32, ptr %4, align 4
  ret i32 %60
}