; Function Attrs: nofree norecurse nosync nounwind memory(argmem: readwrite) uwtable
define hidden range(i32 0, 44) i32 @Curl_http_decode_status(ptr noundef writeonly captures(none) %0, ptr noundef readonly captures(none) %1, i64 noundef %2) local_unnamed_addr #5 {
  %.not = icmp eq i64 %2, 3
  br i1 %.not, label %.preheader, label %.loopexit

.preheader:                                       ; preds = %3, %7
  %indvars.iv = phi i64 [ %indvars.iv.next, %7 ], [ 0, %3 ]
  %.123 = phi i32 [ %11, %7 ], [ 0, %3 ]
  %4 = getelementptr inbounds nuw i8, ptr %1, i64 %indvars.iv
  %5 = load i8, ptr %4, align 1, !tbaa !98
  %6 = add i8 %5, -58
  %or.cond = icmp ult i8 %6, -10
  br i1 %or.cond, label %.loopexit, label %7

7:                                                ; preds = %.preheader
  %8 = mul nsw i32 %.123, 10
  %9 = zext nneg i8 %5 to i32
  %10 = add i32 %8, -48
  %11 = add i32 %10, %9
  %indvars.iv.next = add nuw nsw i64 %indvars.iv, 1
  %exitcond.not = icmp eq i64 %indvars.iv.next, 3
  br i1 %exitcond.not, label %.loopexit, label %.preheader, !llvm.loop !238

.loopexit:                                        ; preds = %.preheader, %7, %3
  %.not22 = phi i32 [ -1, %3 ], [ %11, %7 ], [ -1, %.preheader ]
  %.020 = phi i32 [ 43, %3 ], [ 0, %7 ], [ 43, %.preheader ]
  store i32 %.not22, ptr %0, align 4, !tbaa !118
  ret i32 %.020
}